target datalayout = "e-m:e-p270:32:32-p271:32:32-p272:64:64-i64:64-i128:128-f80:128-n8:16:32:64-S128"
target triple = "x86_64-pc-linux-gnu"

%struct.point_t = type { float, float }
%struct.box_t = type { %struct.point_t, float, float, i32, [12 x i8], [4 x float], [4 x float] }
%struct.chart_t = type { ptr, ptr, ptr, ptr, float, float, float, float }
%struct._GHashTableIter = type { ptr, ptr, ptr, i32, i32, ptr }

; Function Attrs: nounwind uwtable
define dso_local void @draw_box(ptr noundef %0, ptr noundef byval(%struct.box_t) align 16 %1, ptr noundef %2) #3 {
  %4 = alloca ptr, align 8
  %5 = alloca ptr, align 8
  %6 = alloca [4 x %struct.point_t], align 16
  %7 = alloca i32, align 4
  %8 = alloca %struct.point_t, align 4
  %9 = alloca i32, align 4
  %10 = alloca %struct.point_t, align 4
  store ptr %0, ptr %4, align 8, !tbaa !7
  store ptr %2, ptr %5, align 8, !tbaa !20
  call void @llvm.lifetime.start.p0(i64 32, ptr %6) #11
  %11 = getelementptr inbounds [4 x %struct.point_t], ptr %6, i64 0, i64 0
  %12 = getelementptr inbounds [4 x %struct.point_t], ptr %6, i64 0, i64 1
  %13 = getelementptr inbounds [4 x %struct.point_t], ptr %6, i64 0, i64 2
  %14 = getelementptr inbounds [4 x %struct.point_t], ptr %6, i64 0, i64 3
  %15 = getelementptr inbounds nuw %struct.box_t, ptr %1, i32 0, i32 0
  call void @llvm.memcpy.p0.p0.i64(ptr align 8 %14, ptr align 16 %15, i64 8, i1 false), !tbaa.struct !22
  call void @llvm.memcpy.p0.p0.i64(ptr align 16 %13, ptr align 8 %14, i64 8, i1 false), !tbaa.struct !22
  call void @llvm.memcpy.p0.p0.i64(ptr align 8 %12, ptr align 16 %13, i64 8, i1 false), !tbaa.struct !22
  call void @llvm.memcpy.p0.p0.i64(ptr align 16 %11, ptr align 8 %12, i64 8, i1 false), !tbaa.struct !22
  %16 = getelementptr inbounds nuw %struct.box_t, ptr %1, i32 0, i32 1
  %17 = load float, ptr %16, align 8, !tbaa !24
  %18 = getelementptr inbounds [4 x %struct.point_t], ptr %6, i64 0, i64 1
  %19 = getelementptr inbounds nuw %struct.point_t, ptr %18, i32 0, i32 0
  %20 = load float, ptr %19, align 8, !tbaa !16
  %21 = fadd reassoc nsz arcp contract afn float %20, %17
  store float %21, ptr %19, align 8, !tbaa !16
  %22 = getelementptr inbounds nuw %struct.box_t, ptr %1, i32 0, i32 1
  %23 = load float, ptr %22, align 8, !tbaa !24
  %24 = getelementptr inbounds [4 x %struct.point_t], ptr %6, i64 0, i64 2
  %25 = getelementptr inbounds nuw %struct.point_t, ptr %24, i32 0, i32 0
  %26 = load float, ptr %25, align 16, !tbaa !16
  %27 = fadd reassoc nsz arcp contract afn float %26, %23
  store float %27, ptr %25, align 16, !tbaa !16
  %28 = getelementptr inbounds nuw %struct.box_t, ptr %1, i32 0, i32 2
  %29 = load float, ptr %28, align 4, !tbaa !26
  %30 = getelementptr inbounds [4 x %struct.point_t], ptr %6, i64 0, i64 2
  %31 = getelementptr inbounds nuw %struct.point_t, ptr %30, i32 0, i32 1
  %32 = load float, ptr %31, align 4, !tbaa !19
  %33 = fadd reassoc nsz arcp contract afn float %32, %29
  store float %33, ptr %31, align 4, !tbaa !19
  %34 = getelementptr inbounds nuw %struct.box_t, ptr %1, i32 0, i32 2
  %35 = load float, ptr %34, align 4, !tbaa !26
  %36 = getelementptr inbounds [4 x %struct.point_t], ptr %6, i64 0, i64 3
  %37 = getelementptr inbounds nuw %struct.point_t, ptr %36, i32 0, i32 1
  %38 = load float, ptr %37, align 4, !tbaa !19
  %39 = fadd reassoc nsz arcp contract afn float %38, %35
  store float %39, ptr %37, align 4, !tbaa !19
  call void @llvm.lifetime.start.p0(i64 4, ptr %7) #11
  store i32 0, ptr %7, align 4, !tbaa !14
  br label %40

40:                                               ; preds = %54, %3
  %41 = load i32, ptr %7, align 4, !tbaa !14
  %42 = icmp slt i32 %41, 4
  br i1 %42, label %44, label %43

43:                                               ; preds = %40
  call void @llvm.lifetime.end.p0(i64 4, ptr %7) #11
  br label %57

44:                                               ; preds = %40
  %45 = load i32, ptr %7, align 4, !tbaa !14
  %46 = sext i32 %45 to i64
  %47 = getelementptr inbounds [4 x %struct.point_t], ptr %6, i64 0, i64 %46
  call void @llvm.lifetime.start.p0(i64 8, ptr %8) #11
  %48 = load i32, ptr %7, align 4, !tbaa !14
  %49 = sext i32 %48 to i64
  %50 = getelementptr inbounds [4 x %struct.point_t], ptr %6, i64 0, i64 %49
  %51 = load ptr, ptr %5, align 8, !tbaa !20
  %52 = load <2 x float>, ptr %50, align 8
  %53 = call reassoc nsz arcp contract afn <2 x float> @apply_homography(<2 x float> %52, ptr noundef %51)
  store <2 x float> %53, ptr %8, align 4
  call void @llvm.memcpy.p0.p0.i64(ptr align 8 %47, ptr align 4 %8, i64 8, i1 false), !tbaa.struct !22
  call void @llvm.lifetime.end.p0(i64 8, ptr %8) #11
  br label %54

54:                                               ; preds = %44
  %55 = load i32, ptr %7, align 4, !tbaa !14
  %56 = add nsw i32 %55, 1
  store i32 %56, ptr %7, align 4, !tbaa !14
  br label %40

57:                                               ; preds = %43
  %58 = load ptr, ptr %4, align 8, !tbaa !7
  %59 = getelementptr inbounds [4 x %struct.point_t], ptr %6, i64 0, i64 0
  %60 = getelementptr inbounds nuw %struct.point_t, ptr %59, i32 0, i32 0
  %61 = load float, ptr %60, align 16, !tbaa !16
  %62 = fpext reassoc nsz arcp contract afn float %61 to double
  %63 = getelementptr inbounds [4 x %struct.point_t], ptr %6, i64 0, i64 0
  %64 = getelementptr inbounds nuw %struct.point_t, ptr %63, i32 0, i32 1
  %65 = load float, ptr %64, align 4, !tbaa !19
  %66 = fpext reassoc nsz arcp contract afn float %65 to double
  call void @cairo_move_to(ptr noundef %58, double noundef %62, double noundef %66)
  call void @llvm.lifetime.start.p0(i64 4, ptr %9) #11
  store i32 1, ptr %9, align 4, !tbaa !14
  br label %67

67:                                               ; preds = %82, %57
  %68 = load i32, ptr %9, align 4, !tbaa !14
  %69 = icmp slt i32 %68, 4
  br i1 %69, label %71, label %70

70:                                               ; preds = %67
  call void @llvm.lifetime.end.p0(i64 4, ptr %9) #11
  br label %85

71:                                               ; preds = %67
  call void @llvm.lifetime.start.p0(i64 8, ptr %10) #11
  %72 = load i32, ptr %9, align 4, !tbaa !14
  %73 = sext i32 %72 to i64
  %74 = getelementptr inbounds [4 x %struct.point_t], ptr %6, i64 0, i64 %73
  call void @llvm.memcpy.p0.p0.i64(ptr align 4 %10, ptr align 8 %74, i64 8, i1 false), !tbaa.struct !22
  %75 = load ptr, ptr %4, align 8, !tbaa !7
  %76 = getelementptr inbounds nuw %struct.point_t, ptr %10, i32 0, i32 0
  %77 = load float, ptr %76, align 4, !tbaa !16
  %78 = fpext reassoc nsz arcp contract afn float %77 to double
  %79 = getelementptr inbounds nuw %struct.point_t, ptr %10, i32 0, i32 1
  %80 = load float, ptr %79, align 4, !tbaa !19
  %81 = fpext reassoc nsz arcp contract afn float %80 to double
  call void @cairo_line_to(ptr noundef %75, double noundef %78, double noundef %81)
  call void @llvm.lifetime.end.p0(i64 8, ptr %10) #11
  br label %82

82:                                               ; preds = %71
  %83 = load i32, ptr %9, align 4, !tbaa !14
  %84 = add nsw i32 %83, 1
  store i32 %84, ptr %9, align 4, !tbaa !14
  br label %67

85:                                               ; preds = %70
  %86 = load ptr, ptr %4, align 8, !tbaa !7
  call void @cairo_close_path(ptr noundef %86)
  call void @llvm.lifetime.end.p0(i64 32, ptr %6) #11
  ret void
}

; Function Attrs: nounwind uwtable
define dso_local void @draw_color_boxes_inside(ptr noundef %0, ptr noundef %1, ptr noundef %2, float noundef %3, float noundef %4, i32 noundef %5) #0 {
  %7 = alloca ptr, align 8
  %8 = alloca ptr, align 8
  %9 = alloca ptr, align 8
  %10 = alloca float, align 4
  %11 = alloca float, align 4
  %12 = alloca i32, align 4
  %13 = alloca %struct._GHashTableIter, align 8
  %14 = alloca ptr, align 8
  %15 = alloca ptr, align 8
  %16 = alloca float, align 4
  %17 = alloca float, align 4
  %18 = alloca ptr, align 8
  %19 = alloca %struct.box_t, align 16
  store ptr %0, ptr %7, align 8, !tbaa !7
  store ptr %1, ptr %8, align 8, !tbaa !20
  store ptr %2, ptr %9, align 8, !tbaa !38
  store float %3, ptr %10, align 4, !tbaa !23
  store float %4, ptr %11, align 4, !tbaa !23
  store i32 %5, ptr %12, align 4, !tbaa !14
  call void @llvm.lifetime.start.p0(i64 40, ptr %13) #11
  call void @llvm.lifetime.start.p0(i64 8, ptr %14) #11
  call void @llvm.lifetime.start.p0(i64 8, ptr %15) #11
  call void @llvm.lifetime.start.p0(i64 4, ptr %16) #11
  %20 = load float, ptr %10, align 4, !tbaa !23
  %21 = load ptr, ptr %9, align 8, !tbaa !38
  %22 = getelementptr inbounds nuw %struct.chart_t, ptr %21, i32 0, i32 6
  %23 = load float, ptr %22, align 8, !tbaa !56
  %24 = fmul reassoc nsz arcp contract afn float %20, %23
  %25 = load ptr, ptr %9, align 8, !tbaa !38
  %26 = getelementptr inbounds nuw %struct.chart_t, ptr %25, i32 0, i32 4
  %27 = load float, ptr %26, align 8, !tbaa !57
  %28 = fdiv reassoc nsz arcp contract afn float %24, %27
  store float %28, ptr %16, align 4, !tbaa !23
  call void @llvm.lifetime.start.p0(i64 4, ptr %17) #11
  %29 = load float, ptr %10, align 4, !tbaa !23
  %30 = load ptr, ptr %9, align 8, !tbaa !38
  %31 = getelementptr inbounds nuw %struct.chart_t, ptr %30, i32 0, i32 6
  %32 = load float, ptr %31, align 8, !tbaa !56
  %33 = fmul reassoc nsz arcp contract afn float %29, %32
  %34 = load ptr, ptr %9, align 8, !tbaa !38
  %35 = getelementptr inbounds nuw %struct.chart_t, ptr %34, i32 0, i32 5
  %36 = load float, ptr %35, align 4, !tbaa !58
  %37 = fdiv reassoc nsz arcp contract afn float %33, %36
  store float %37, ptr %17, align 4, !tbaa !23
  %38 = load ptr, ptr %7, align 8, !tbaa !7
  %39 = load float, ptr %11, align 4, !tbaa !23
  %40 = fpext reassoc nsz arcp contract afn float %39 to double
  call void @cairo_set_line_width(ptr noundef %38, double noundef %40)
  %41 = load ptr, ptr %7, align 8, !tbaa !7
  call void @cairo_set_source_rgb(ptr noundef %41, double noundef 1.000000e+00, double noundef 1.000000e+00, double noundef 1.000000e+00)
  %42 = load ptr, ptr %9, align 8, !tbaa !38
  %43 = getelementptr inbounds nuw %struct.chart_t, ptr %42, i32 0, i32 2
  %44 = load ptr, ptr %43, align 8, !tbaa !55
  call void @g_hash_table_iter_init(ptr noundef %13, ptr noundef %44)
  br label %45

45:                                               ; preds = %98, %6
  %46 = call i32 @g_hash_table_iter_next(ptr noundef %13, ptr noundef %14, ptr noundef %15)
  %47 = icmp ne i32 %46, 0
  br i1 %47, label %48, label %100

48:                                               ; preds = %45
  call void @llvm.lifetime.start.p0(i64 8, ptr %18) #11
  %49 = load ptr, ptr %15, align 8, !tbaa !52
  store ptr %49, ptr %18, align 8, !tbaa !53
  call void @llvm.lifetime.start.p0(i64 64, ptr %19) #11
  %50 = load ptr, ptr %18, align 8, !tbaa !53
  call void @llvm.memcpy.p0.p0.i64(ptr align 16 %19, ptr align 16 %50, i64 64, i1 false), !tbaa.struct !59
  %51 = load float, ptr %16, align 4, !tbaa !23
  %52 = getelementptr inbounds nuw %struct.box_t, ptr %19, i32 0, i32 0
  %53 = getelementptr inbounds nuw %struct.point_t, ptr %52, i32 0, i32 0
  %54 = load float, ptr %53, align 16, !tbaa !61
  %55 = fadd reassoc nsz arcp contract afn float %54, %51
  store float %55, ptr %53, align 16, !tbaa !61
  %56 = load float, ptr %17, align 4, !tbaa !23
  %57 = getelementptr inbounds nuw %struct.box_t, ptr %19, i32 0, i32 0
  %58 = getelementptr inbounds nuw %struct.point_t, ptr %57, i32 0, i32 1
  %59 = load float, ptr %58, align 4, !tbaa !62
  %60 = fadd reassoc nsz arcp contract afn float %59, %56
  store float %60, ptr %58, align 4, !tbaa !62
  %61 = load float, ptr %16, align 4, !tbaa !23
  %62 = fpext reassoc nsz arcp contract afn float %61 to double
  %63 = fmul reassoc nsz arcp contract afn double 2.000000e+00, %62
  %64 = getelementptr inbounds nuw %struct.box_t, ptr %19, i32 0, i32 1
  %65 = load float, ptr %64, align 8, !tbaa !24
  %66 = fpext reassoc nsz arcp contract afn float %65 to double
  %67 = fsub reassoc nsz arcp contract afn double %66, %63
  %68 = fptrunc reassoc nsz arcp contract afn double %67 to float
  store float %68, ptr %64, align 8, !tbaa !24
  %69 = load float, ptr %17, align 4, !tbaa !23
  %70 = fpext reassoc nsz arcp contract afn float %69 to double
  %71 = fmul reassoc nsz arcp contract afn double 2.000000e+00, %70
  %72 = getelementptr inbounds nuw %struct.box_t, ptr %19, i32 0, i32 2
  %73 = load float, ptr %72, align 4, !tbaa !26
  %74 = fpext reassoc nsz arcp contract afn float %73 to double
  %75 = fsub reassoc nsz arcp contract afn double %74, %71
  %76 = fptrunc reassoc nsz arcp contract afn double %75 to float
  store float %76, ptr %72, align 4, !tbaa !26
  %77 = load ptr, ptr %7, align 8, !tbaa !7
  %78 = load ptr, ptr %8, align 8, !tbaa !20
  call void @draw_box(ptr noundef %77, ptr noundef byval(%struct.box_t) align 16 %19, ptr noundef %78)
  %79 = load i32, ptr %12, align 4, !tbaa !14
  %80 = icmp ne i32 %79, 0
  br i1 %80, label %81, label %98

81:                                               ; preds = %48
  %82 = load ptr, ptr %7, align 8, !tbaa !7
  %83 = load ptr, ptr %18, align 8, !tbaa !53
  %84 = getelementptr inbounds nuw %struct.box_t, ptr %83, i32 0, i32 6
  %85 = getelementptr inbounds [4 x float], ptr %84, i64 0, i64 0
  %86 = load float, ptr %85, align 16, !tbaa !23
  %87 = fpext reassoc nsz arcp contract afn float %86 to double
  %88 = load ptr, ptr %18, align 8, !tbaa !53
  %89 = getelementptr inbounds nuw %struct.box_t, ptr %88, i32 0, i32 6
  %90 = getelementptr inbounds [4 x float], ptr %89, i64 0, i64 1
  %91 = load float, ptr %90, align 4, !tbaa !23
  %92 = fpext reassoc nsz arcp contract afn float %91 to double
  %93 = load ptr, ptr %18, align 8, !tbaa !53
  %94 = getelementptr inbounds nuw %struct.box_t, ptr %93, i32 0, i32 6
  %95 = getelementptr inbounds [4 x float], ptr %94, i64 0, i64 2
  %96 = load float, ptr %95, align 8, !tbaa !23
  %97 = fpext reassoc nsz arcp contract afn float %96 to double
  call void @cairo_set_source_rgb(ptr noundef %82, double noundef %87, double noundef %92, double noundef %97)
  br label %98

98:                                               ; preds = %81, %48
  %99 = load ptr, ptr %7, align 8, !tbaa !7
  call void @cairo_stroke(ptr noundef %99)
  call void @llvm.lifetime.end.p0(i64 64, ptr %19) #11
  call void @llvm.lifetime.end.p0(i64 8, ptr %18) #11
  br label %45

100:                                              ; preds = %45
  call void @llvm.lifetime.end.p0(i64 4, ptr %17) #11
  call void @llvm.lifetime.end.p0(i64 4, ptr %16) #11
  call void @llvm.lifetime.end.p0(i64 8, ptr %15) #11
  call void @llvm.lifetime.end.p0(i64 8, ptr %14) #11
  call void @llvm.lifetime.end.p0(i64 40, ptr %13) #11
  ret void
}