; Function Attrs: nounwind uwtable
define dso_local void @draw_color_boxes_inside(ptr noundef %0, ptr noundef %1, ptr noundef readonly captures(none) %2, float noundef %3, float noundef %4, i32 noundef %5) local_unnamed_addr #3 {
  %7 = alloca [4 x %struct.point_t], align 16
  %8 = alloca %struct._GHashTableIter, align 8
  %9 = alloca ptr, align 8
  %10 = alloca ptr, align 8
  call void @llvm.lifetime.start.p0(i64 40, ptr nonnull %8) #8
  call void @llvm.lifetime.start.p0(i64 8, ptr nonnull %9) #8
  call void @llvm.lifetime.start.p0(i64 8, ptr nonnull %10) #8
  %11 = getelementptr inbounds nuw i8, ptr %2, i64 40
  %12 = load float, ptr %11, align 8, !tbaa !37
  %13 = fmul reassoc nsz arcp contract afn float %12, %3
  %14 = getelementptr inbounds nuw i8, ptr %2, i64 32
  %15 = load float, ptr %14, align 8, !tbaa !38
  %16 = fdiv reassoc nsz arcp contract afn float %13, %15
  %17 = getelementptr inbounds nuw i8, ptr %2, i64 36
  %18 = load float, ptr %17, align 4, !tbaa !39
  %19 = fdiv reassoc nsz arcp contract afn float %13, %18
  %20 = fpext reassoc nsz arcp contract afn float %4 to double
  tail call void @cairo_set_line_width(ptr noundef %0, double noundef %20) #8
  tail call void @cairo_set_source_rgb(ptr noundef %0, double noundef 1.000000e+00, double noundef 1.000000e+00, double noundef 1.000000e+00) #8
  %21 = getelementptr inbounds nuw i8, ptr %2, i64 16
  %22 = load ptr, ptr %21, align 8, !tbaa !36
  call void @g_hash_table_iter_init(ptr noundef nonnull %8, ptr noundef %22) #8
  %23 = call i32 @g_hash_table_iter_next(ptr noundef nonnull %8, ptr noundef nonnull %9, ptr noundef nonnull %10) #8
  %.not32 = icmp eq i32 %23, 0
  br i1 %.not32, label %._crit_edge, label %.lr.ph

.lr.ph:                                           ; preds = %6
  %24 = fpext reassoc nsz arcp contract afn float %16 to double
  %25 = fmul reassoc nsz arcp contract afn double %24, 2.000000e+00
  %26 = fpext reassoc nsz arcp contract afn float %19 to double
  %27 = fmul reassoc nsz arcp contract afn double %26, 2.000000e+00
  %28 = getelementptr inbounds nuw i8, ptr %7, i64 8
  %29 = getelementptr inbounds nuw i8, ptr %7, i64 16
  %30 = getelementptr inbounds nuw i8, ptr %7, i64 24
  %31 = getelementptr inbounds nuw i8, ptr %7, i64 20
  %32 = getelementptr inbounds nuw i8, ptr %7, i64 28
  %33 = getelementptr inbounds nuw i8, ptr %7, i64 4
  %.not22 = icmp eq i32 %5, 0
  br label %34

34:                                               ; preds = %.lr.ph, %71
  %35 = load ptr, ptr %10, align 8, !tbaa !35
  %.sroa.0.0.copyload = load float, ptr %35, align 16, !tbaa !17
  %.sroa.6.0..sroa_idx = getelementptr inbounds nuw i8, ptr %35, i64 4
  %.sroa.6.0.copyload = load float, ptr %.sroa.6.0..sroa_idx, align 4, !tbaa !17
  %.sroa.8.0..sroa_idx = getelementptr inbounds nuw i8, ptr %35, i64 8
  %.sroa.8.0.copyload = load float, ptr %.sroa.8.0..sroa_idx, align 8, !tbaa !17
  %.sroa.10.0..sroa_idx = getelementptr inbounds nuw i8, ptr %35, i64 12
  %.sroa.10.0.copyload = load float, ptr %.sroa.10.0..sroa_idx, align 4, !tbaa !17
  %36 = fadd reassoc nsz arcp contract afn float %.sroa.0.0.copyload, %16
  %37 = fadd reassoc nsz arcp contract afn float %.sroa.6.0.copyload, %19
  %38 = fpext reassoc nsz arcp contract afn float %.sroa.8.0.copyload to double
  %39 = fsub reassoc nsz arcp contract afn double %38, %25
  %40 = fptrunc reassoc nsz arcp contract afn double %39 to float
  %41 = fpext reassoc nsz arcp contract afn float %.sroa.10.0.copyload to double
  %42 = fsub reassoc nsz arcp contract afn double %41, %27
  %43 = fptrunc reassoc nsz arcp contract afn double %42 to float
  call void @llvm.lifetime.start.p0(i64 32, ptr nonnull %7) #8
  %44 = bitcast float %36 to i32
  %45 = bitcast float %37 to i32
  %.sroa.031.sroa.4.0.insert.ext = zext i32 %45 to i64
  %.sroa.031.sroa.4.0.insert.shift = shl nuw i64 %.sroa.031.sroa.4.0.insert.ext, 32
  %.sroa.031.sroa.0.0.insert.ext = zext i32 %44 to i64
  %.sroa.031.sroa.0.0.insert.insert = or disjoint i64 %.sroa.031.sroa.4.0.insert.shift, %.sroa.031.sroa.0.0.insert.ext
  store i64 %.sroa.031.sroa.0.0.insert.insert, ptr %30, align 8
  store i64 %.sroa.031.sroa.0.0.insert.insert, ptr %28, align 8
  store i64 %.sroa.031.sroa.0.0.insert.insert, ptr %7, align 16
  %46 = fadd reassoc nsz arcp contract afn float %36, %40
  store float %46, ptr %28, align 8, !tbaa !14
  store float %46, ptr %29, align 16, !tbaa !14
  %47 = fadd reassoc nsz arcp contract afn float %37, %43
  store float %47, ptr %31, align 4, !tbaa !16
  store float %47, ptr %32, align 4, !tbaa !16
  br label %53

48:                                               ; preds = %53
  %49 = load float, ptr %7, align 16, !tbaa !14
  %50 = fpext reassoc nsz arcp contract afn float %49 to double
  %51 = load float, ptr %33, align 4, !tbaa !16
  %52 = fpext reassoc nsz arcp contract afn float %51 to double
  call void @cairo_move_to(ptr noundef %0, double noundef %50, double noundef %52) #8
  br label %57

53:                                               ; preds = %53, %34
  %indvars.iv.i = phi i64 [ 0, %34 ], [ %indvars.iv.next.i, %53 ]
  %54 = getelementptr inbounds nuw [4 x %struct.point_t], ptr %7, i64 0, i64 %indvars.iv.i
  %55 = load <2 x float>, ptr %54, align 8
  %56 = call reassoc nsz arcp contract afn <2 x float> @apply_homography(<2 x float> %55, ptr noundef %1) #8
  store <2 x float> %56, ptr %54, align 8
  %indvars.iv.next.i = add nuw nsw i64 %indvars.iv.i, 1
  %exitcond.not.i = icmp eq i64 %indvars.iv.next.i, 4
  br i1 %exitcond.not.i, label %48, label %53

57:                                               ; preds = %57, %48
  %indvars.iv15.i = phi i64 [ 1, %48 ], [ %indvars.iv.next16.i, %57 ]
  %58 = getelementptr inbounds nuw [4 x %struct.point_t], ptr %7, i64 0, i64 %indvars.iv15.i
  %.sroa.0.0.copyload.i = load float, ptr %58, align 8, !tbaa !17
  %.sroa.4.0..sroa_idx.i = getelementptr inbounds nuw i8, ptr %58, i64 4
  %.sroa.4.0.copyload.i = load float, ptr %.sroa.4.0..sroa_idx.i, align 4, !tbaa !17
  %59 = fpext reassoc nsz arcp contract afn float %.sroa.0.0.copyload.i to double
  %60 = fpext reassoc nsz arcp contract afn float %.sroa.4.0.copyload.i to double
  call void @cairo_line_to(ptr noundef %0, double noundef %59, double noundef %60) #8
  %indvars.iv.next16.i = add nuw nsw i64 %indvars.iv15.i, 1
  %exitcond18.not.i = icmp eq i64 %indvars.iv.next16.i, 4
  br i1 %exitcond18.not.i, label %draw_box.exit, label %57

draw_box.exit:                                    ; preds = %57
  call void @cairo_close_path(ptr noundef %0) #8
  call void @llvm.lifetime.end.p0(i64 32, ptr nonnull %7) #8
  br i1 %.not22, label %71, label %61

61:                                               ; preds = %draw_box.exit
  %62 = getelementptr inbounds nuw i8, ptr %35, i64 48
  %63 = load float, ptr %62, align 16, !tbaa !17
  %64 = fpext reassoc nsz arcp contract afn float %63 to double
  %65 = getelementptr inbounds nuw i8, ptr %35, i64 52
  %66 = load float, ptr %65, align 4, !tbaa !17
  %67 = fpext reassoc nsz arcp contract afn float %66 to double
  %68 = getelementptr inbounds nuw i8, ptr %35, i64 56
  %69 = load float, ptr %68, align 8, !tbaa !17
  %70 = fpext reassoc nsz arcp contract afn float %69 to double
  call void @cairo_set_source_rgb(ptr noundef %0, double noundef %64, double noundef %67, double noundef %70) #8
  br label %71

71:                                               ; preds = %61, %draw_box.exit
  call void @cairo_stroke(ptr noundef %0) #8
  %72 = call i32 @g_hash_table_iter_next(ptr noundef nonnull %8, ptr noundef nonnull %9, ptr noundef nonnull %10) #8
  %.not = icmp eq i32 %72, 0
  br i1 %.not, label %._crit_edge, label %34

._crit_edge:                                      ; preds = %71, %6
  call void @llvm.lifetime.end.p0(i64 8, ptr nonnull %10) #8
  call void @llvm.lifetime.end.p0(i64 8, ptr nonnull %9) #8
  call void @llvm.lifetime.end.p0(i64 40, ptr nonnull %8) #8
  ret void
}